target datalayout = "e-m:e-p270:32:32-p271:32:32-p272:64:64-i64:64-i128:128-f80:128-n8:16:32:64-S128"
target triple = "x86_64-pc-linux-gnu"

; Function Attrs: nounwind uwtable
define internal i64 @encode_length(ptr noundef %0, i64 noundef %1, i64 noundef %2) #0 {
  %4 = alloca i64, align 8
  %5 = alloca ptr, align 8
  %6 = alloca i64, align 8
  %7 = alloca i64, align 8
  %8 = alloca i64, align 8
  %9 = alloca ptr, align 8
  %10 = alloca i32, align 4
  store ptr %0, ptr %5, align 8, !tbaa !85
  store i64 %1, ptr %6, align 8, !tbaa !38
  store i64 %2, ptr %7, align 8, !tbaa !38
  call void @llvm.lifetime.start.p0(i64 8, ptr %8) #6
  %11 = load i64, ptr %7, align 8, !tbaa !38
  %12 = trunc i64 %11 to i32
  %13 = shl i32 1, %12
  %14 = sub nsw i32 %13, 1
  %15 = sext i32 %14 to i64
  store i64 %15, ptr %8, align 8, !tbaa !38
  call void @llvm.lifetime.start.p0(i64 8, ptr %9) #6
  %16 = load ptr, ptr %5, align 8, !tbaa !85
  store ptr %16, ptr %9, align 8, !tbaa !85
  %17 = load ptr, ptr %5, align 8, !tbaa !85
  %18 = load i8, ptr %17, align 1, !tbaa !15
  %19 = zext i8 %18 to i64
  %20 = load i64, ptr %8, align 8, !tbaa !38
  %21 = xor i64 %20, -1
  %22 = and i64 %19, %21
  %23 = trunc i64 %22 to i8
  %24 = load ptr, ptr %5, align 8, !tbaa !85
  store i8 %23, ptr %24, align 1, !tbaa !15
  %25 = load i64, ptr %6, align 8, !tbaa !38
  %26 = load i64, ptr %8, align 8, !tbaa !38
  %27 = icmp ult i64 %25, %26
  br i1 %27, label %28, label %36

28:                                               ; preds = %3
  %29 = load ptr, ptr %5, align 8, !tbaa !85
  %30 = load i8, ptr %29, align 1, !tbaa !15
  %31 = zext i8 %30 to i64
  %32 = load i64, ptr %6, align 8, !tbaa !38
  %33 = or i64 %31, %32
  %34 = trunc i64 %33 to i8
  %35 = load ptr, ptr %5, align 8, !tbaa !85
  store i8 %34, ptr %35, align 1, !tbaa !15
  store i64 1, ptr %4, align 8
  store i32 1, ptr %10, align 4
  br label %72

36:                                               ; preds = %3
  %37 = load ptr, ptr %5, align 8, !tbaa !85
  %38 = load i8, ptr %37, align 1, !tbaa !15
  %39 = zext i8 %38 to i64
  %40 = load i64, ptr %8, align 8, !tbaa !38
  %41 = or i64 %39, %40
  %42 = trunc i64 %41 to i8
  %43 = load ptr, ptr %5, align 8, !tbaa !85
  store i8 %42, ptr %43, align 1, !tbaa !15
  %44 = load ptr, ptr %5, align 8, !tbaa !85
  %45 = getelementptr inbounds nuw i8, ptr %44, i32 1
  store ptr %45, ptr %5, align 8, !tbaa !85
  %46 = load i64, ptr %8, align 8, !tbaa !38
  %47 = load i64, ptr %6, align 8, !tbaa !38
  %48 = sub i64 %47, %46
  store i64 %48, ptr %6, align 8, !tbaa !38
  br label %49

49:                                               ; preds = %59, %36
  %50 = load i64, ptr %6, align 8, !tbaa !38
  %51 = icmp uge i64 %50, 128
  br i1 %51, label %52, label %62

52:                                               ; preds = %49
  %53 = load i64, ptr %6, align 8, !tbaa !38
  %54 = and i64 %53, 127
  %55 = or i64 128, %54
  %56 = trunc i64 %55 to i8
  %57 = load ptr, ptr %5, align 8, !tbaa !85
  %58 = getelementptr inbounds nuw i8, ptr %57, i32 1
  store ptr %58, ptr %5, align 8, !tbaa !85
  store i8 %56, ptr %57, align 1, !tbaa !15
  br label %59

59:                                               ; preds = %52
  %60 = load i64, ptr %6, align 8, !tbaa !38
  %61 = lshr i64 %60, 7
  store i64 %61, ptr %6, align 8, !tbaa !38
  br label %49, !llvm.loop !123

62:                                               ; preds = %49
  %63 = load i64, ptr %6, align 8, !tbaa !38
  %64 = trunc i64 %63 to i8
  %65 = load ptr, ptr %5, align 8, !tbaa !85
  %66 = getelementptr inbounds nuw i8, ptr %65, i32 1
  store ptr %66, ptr %5, align 8, !tbaa !85
  store i8 %64, ptr %65, align 1, !tbaa !15
  %67 = load ptr, ptr %5, align 8, !tbaa !85
  %68 = load ptr, ptr %9, align 8, !tbaa !85
  %69 = ptrtoint ptr %67 to i64
  %70 = ptrtoint ptr %68 to i64
  %71 = sub i64 %69, %70
  store i64 %71, ptr %4, align 8
  store i32 1, ptr %10, align 4
  br label %72

72:                                               ; preds = %62, %28
  call void @llvm.lifetime.end.p0(i64 8, ptr %9) #6
  call void @llvm.lifetime.end.p0(i64 8, ptr %8) #6
  %73 = load i64, ptr %4, align 8
  ret i64 %73
}

; Function Attrs: nounwind uwtable
define internal i64 @count_encoded_length(i64 noundef %0, i64 noundef %1) #0 {
  %3 = alloca i64, align 8
  %4 = alloca i64, align 8
  %5 = alloca i64, align 8
  %6 = alloca i64, align 8
  %7 = alloca i64, align 8
  %8 = alloca i32, align 4
  store i64 %0, ptr %4, align 8, !tbaa !38
  store i64 %1, ptr %5, align 8, !tbaa !38
  call void @llvm.lifetime.start.p0(i64 8, ptr %6) #6
  %9 = load i64, ptr %5, align 8, !tbaa !38
  %10 = trunc i64 %9 to i32
  %11 = shl i32 1, %10
  %12 = sub nsw i32 %11, 1
  %13 = sext i32 %12 to i64
  store i64 %13, ptr %6, align 8, !tbaa !38
  call void @llvm.lifetime.start.p0(i64 8, ptr %7) #6
  store i64 0, ptr %7, align 8, !tbaa !38
  %14 = load i64, ptr %4, align 8, !tbaa !38
  %15 = load i64, ptr %6, align 8, !tbaa !38
  %16 = icmp ult i64 %14, %15
  br i1 %16, label %17, label %18

17:                                               ; preds = %2
  store i64 1, ptr %3, align 8
  store i32 1, ptr %8, align 4
  br label %36

18:                                               ; preds = %2
  %19 = load i64, ptr %6, align 8, !tbaa !38
  %20 = load i64, ptr %4, align 8, !tbaa !38
  %21 = sub i64 %20, %19
  store i64 %21, ptr %4, align 8, !tbaa !38
  %22 = load i64, ptr %7, align 8, !tbaa !38
  %23 = add i64 %22, 1
  store i64 %23, ptr %7, align 8, !tbaa !38
  br label %24

24:                                               ; preds = %28, %18
  %25 = load i64, ptr %4, align 8, !tbaa !38
  %26 = icmp uge i64 %25, 128
  br i1 %26, label %27, label %33

27:                                               ; preds = %24
  br label %28

28:                                               ; preds = %27
  %29 = load i64, ptr %4, align 8, !tbaa !38
  %30 = lshr i64 %29, 7
  store i64 %30, ptr %4, align 8, !tbaa !38
  %31 = load i64, ptr %7, align 8, !tbaa !38
  %32 = add i64 %31, 1
  store i64 %32, ptr %7, align 8, !tbaa !38
  br label %24, !llvm.loop !122

33:                                               ; preds = %24
  %34 = load i64, ptr %7, align 8, !tbaa !38
  %35 = add i64 %34, 1
  store i64 %35, ptr %3, align 8
  store i32 1, ptr %8, align 4
  br label %36

36:                                               ; preds = %33, %17
  call void @llvm.lifetime.end.p0(i64 8, ptr %7) #6
  call void @llvm.lifetime.end.p0(i64 8, ptr %6) #6
  %37 = load i64, ptr %3, align 8
  ret i64 %37
}

; Function Attrs: nounwind uwtable
define internal i32 @emit_table_size(ptr noundef %0, i64 noundef %1) #0 {
  %3 = alloca i32, align 4
  %4 = alloca ptr, align 8
  %5 = alloca i64, align 8
  %6 = alloca i32, align 4
  %7 = alloca ptr, align 8
  %8 = alloca i64, align 8
  %9 = alloca [16 x i8], align 16
  %10 = alloca i32, align 4
  store ptr %0, ptr %4, align 8, !tbaa !9
  store i64 %1, ptr %5, align 8, !tbaa !38
  call void @llvm.lifetime.start.p0(i64 4, ptr %6) #6
  call void @llvm.lifetime.start.p0(i64 8, ptr %7) #6
  call void @llvm.lifetime.start.p0(i64 8, ptr %8) #6
  call void @llvm.lifetime.start.p0(i64 16, ptr %9) #6
  br label %11

11:                                               ; preds = %2
  br label %12

12:                                               ; preds = %11
  br label %13

13:                                               ; preds = %12
  %14 = load i64, ptr %5, align 8, !tbaa !38
  %15 = call i64 @count_encoded_length(i64 noundef %14, i64 noundef 5)
  store i64 %15, ptr %8, align 8, !tbaa !38
  %16 = load i64, ptr %8, align 8, !tbaa !38
  %17 = icmp ult i64 16, %16
  br i1 %17, label %18, label %19

18:                                               ; preds = %13
  store i32 -523, ptr %3, align 4
  store i32 1, ptr %10, align 4
  br label %34

19:                                               ; preds = %13
  %20 = getelementptr inbounds [16 x i8], ptr %9, i64 0, i64 0
  store ptr %20, ptr %7, align 8, !tbaa !85
  %21 = load ptr, ptr %7, align 8, !tbaa !85
  store i8 32, ptr %21, align 1, !tbaa !15
  %22 = load ptr, ptr %7, align 8, !tbaa !85
  %23 = load i64, ptr %5, align 8, !tbaa !38
  %24 = call i64 @encode_length(ptr noundef %22, i64 noundef %23, i64 noundef 5)
  %25 = load ptr, ptr %4, align 8, !tbaa !9
  %26 = getelementptr inbounds [16 x i8], ptr %9, i64 0, i64 0
  %27 = load i64, ptr %8, align 8, !tbaa !38
  %28 = call i32 @nghttp2_bufs_add(ptr noundef %25, ptr noundef %26, i64 noundef %27)
  store i32 %28, ptr %6, align 4, !tbaa !13
  %29 = load i32, ptr %6, align 4, !tbaa !13
  %30 = icmp ne i32 %29, 0
  br i1 %30, label %31, label %33

31:                                               ; preds = %19
  %32 = load i32, ptr %6, align 4, !tbaa !13
  store i32 %32, ptr %3, align 4
  store i32 1, ptr %10, align 4
  br label %34

33:                                               ; preds = %19
  store i32 0, ptr %3, align 4
  store i32 1, ptr %10, align 4
  br label %34

34:                                               ; preds = %33, %31, %18
  call void @llvm.lifetime.end.p0(i64 16, ptr %9) #6
  call void @llvm.lifetime.end.p0(i64 8, ptr %8) #6
  call void @llvm.lifetime.end.p0(i64 8, ptr %7) #6
  call void @llvm.lifetime.end.p0(i64 4, ptr %6) #6
  %35 = load i32, ptr %3, align 4
  ret i32 %35
}

; Function Attrs: nounwind uwtable
define dso_local i32 @nghttp2_hd_emit_table_size(ptr noundef %0, i64 noundef %1) #0 {
  %3 = alloca ptr, align 8
  %4 = alloca i64, align 8
  store ptr %0, ptr %3, align 8, !tbaa !9
  store i64 %1, ptr %4, align 8, !tbaa !38
  %5 = load ptr, ptr %3, align 8, !tbaa !9
  %6 = load i64, ptr %4, align 8, !tbaa !38
  %7 = call i32 @emit_table_size(ptr noundef %5, i64 noundef %6)
  ret i32 %7
}