; Function Attrs: nounwind uwtable
define dso_local i32 @nghttp2_hd_emit_table_size(ptr noundef %0, i64 noundef %1) local_unnamed_addr #0 {
  %3 = alloca [16 x i8], align 16
  call void @llvm.lifetime.start.p0(i64 16, ptr nonnull %3) #13
  %4 = icmp ult i64 %1, 31
  br i1 %4, label %count_encoded_length.exit.thread.thread.i, label %7

count_encoded_length.exit.thread.thread.i:        ; preds = %2
  %5 = trunc nuw i64 %1 to i8
  %6 = or disjoint i8 %5, 32
  store i8 %6, ptr %3, align 16, !tbaa !12
  br label %encode_length.exit.i

7:                                                ; preds = %2
  %8 = add i64 %1, -31
  %9 = icmp ugt i64 %8, 127
  br i1 %9, label %.lr.ph.i.i, label %count_encoded_length.exit.thread.thread17.thread.i

count_encoded_length.exit.thread.thread17.thread.i: ; preds = %7
  store i8 63, ptr %3, align 16, !tbaa !12
  %.02428.i21.i = getelementptr inbounds nuw i8, ptr %3, i64 1
  br label %._crit_edge.i.i

.lr.ph.i.i:                                       ; preds = %7, %.lr.ph.i.i
  %.016.i.i = phi i64 [ %11, %.lr.ph.i.i ], [ 1, %7 ]
  %.01215.i.i = phi i64 [ %10, %.lr.ph.i.i ], [ %8, %7 ]
  %10 = lshr i64 %.01215.i.i, 7
  %11 = add nuw nsw i64 %.016.i.i, 1
  %12 = icmp ugt i64 %.01215.i.i, 16383
  br i1 %12, label %.lr.ph.i.i, label %count_encoded_length.exit.i, !llvm.loop !79

count_encoded_length.exit.i:                      ; preds = %.lr.ph.i.i
  %13 = icmp samesign ugt i64 %.016.i.i, 14
  br i1 %13, label %emit_table_size.exit, label %count_encoded_length.exit.thread.thread17.i

count_encoded_length.exit.thread.thread17.i:      ; preds = %count_encoded_length.exit.i
  store i8 63, ptr %3, align 16, !tbaa !12
  %.02428.i.i = getelementptr inbounds nuw i8, ptr %3, i64 1
  br label %.lr.ph.i11.i

.lr.ph.i11.i:                                     ; preds = %.lr.ph.i11.i, %count_encoded_length.exit.thread.thread17.i
  %.02430.i.i = phi ptr [ %.024.i.i, %.lr.ph.i11.i ], [ %.02428.i.i, %count_encoded_length.exit.thread.thread17.i ]
  %.02529.i.i = phi i64 [ %16, %.lr.ph.i11.i ], [ %8, %count_encoded_length.exit.thread.thread17.i ]
  %14 = trunc i64 %.02529.i.i to i8
  %15 = or i8 %14, -128
  store i8 %15, ptr %.02430.i.i, align 1, !tbaa !12
  %16 = lshr i64 %.02529.i.i, 7
  %.024.i.i = getelementptr inbounds nuw i8, ptr %.02430.i.i, i64 1
  %17 = icmp ugt i64 %.02529.i.i, 16383
  br i1 %17, label %.lr.ph.i11.i, label %._crit_edge.i.i.loopexit, !llvm.loop !80

._crit_edge.i.i.loopexit:                         ; preds = %.lr.ph.i11.i
  %18 = add nuw nsw i64 %.016.i.i, 2
  br label %._crit_edge.i.i

._crit_edge.i.i:                                  ; preds = %._crit_edge.i.i.loopexit, %count_encoded_length.exit.thread.thread17.thread.i
  %.011.i131922.i = phi i64 [ 2, %count_encoded_length.exit.thread.thread17.thread.i ], [ %18, %._crit_edge.i.i.loopexit ]
  %.025.lcssa.i.i = phi i64 [ %8, %count_encoded_length.exit.thread.thread17.thread.i ], [ %16, %._crit_edge.i.i.loopexit ]
  %.024.lcssa.i.i = phi ptr [ %.02428.i21.i, %count_encoded_length.exit.thread.thread17.thread.i ], [ %.024.i.i, %._crit_edge.i.i.loopexit ]
  %19 = trunc nuw nsw i64 %.025.lcssa.i.i to i8
  store i8 %19, ptr %.024.lcssa.i.i, align 1, !tbaa !12
  br label %encode_length.exit.i

encode_length.exit.i:                             ; preds = %._crit_edge.i.i, %count_encoded_length.exit.thread.thread.i
  %.011.i1315.i = phi i64 [ 1, %count_encoded_length.exit.thread.thread.i ], [ %.011.i131922.i, %._crit_edge.i.i ]
  %20 = call i32 @nghttp2_bufs_add(ptr noundef %0, ptr noundef nonnull %3, i64 noundef %.011.i1315.i) #13
  br label %emit_table_size.exit

emit_table_size.exit:                             ; preds = %count_encoded_length.exit.i, %encode_length.exit.i
  %.0.i = phi i32 [ -523, %count_encoded_length.exit.i ], [ %20, %encode_length.exit.i ]
  call void @llvm.lifetime.end.p0(i64 16, ptr nonnull %3) #13
  ret i32 %.0.i
}